target datalayout = "e-m:e-p270:32:32-p271:32:32-p272:64:64-i64:64-i128:128-f80:128-n8:16:32:64-S128"
target triple = "x86_64-pc-linux-gnu"

%struct._object = type { %union.anon.41, ptr }
%union.anon.41 = type { i64 }
%struct.PyVarObject = type { %struct._object, i64 }
%struct.PyTupleObject = type { %struct.PyVarObject, [1 x ptr] }
%struct.PyStructSequence_Desc = type { ptr, ptr, ptr, i32 }
%struct.PyStructSequence_Field = type { ptr, ptr }
%struct.anon.42 = type { i32, i32 }

@.str = private unnamed_addr constant [14 x i8] c"unnamed field\00", align 1
@visible_length_key = internal constant [18 x i8] c"n_sequence_fields\00", align 16
@real_length_key = internal constant [9 x i8] c"n_fields\00", align 1
@unnamed_fields_key = internal constant [17 x i8] c"n_unnamed_fields\00", align 16
@match_args_key = internal constant [15 x i8] c"__match_args__\00", align 1

; Function Attrs: alwaysinline nounwind uwtable
define internal i32 @_Py_IsImmortal(ptr noundef %0) #6 {
  %2 = alloca ptr, align 8
  store ptr %0, ptr %2, align 8, !tbaa !12
  %3 = load ptr, ptr %2, align 8, !tbaa !12
  %4 = getelementptr inbounds nuw %struct._object, ptr %3, i32 0, i32 0
  %5 = getelementptr inbounds nuw %struct.anon.42, ptr %4, i32 0, i32 0
  %6 = load i32, ptr %5, align 8, !tbaa !64
  %7 = icmp slt i32 %6, 0
  %8 = zext i1 %7 to i32
  ret i32 %8
}

; Function Attrs: inlinehint nounwind uwtable
define internal void @PyTuple_SET_ITEM(ptr noundef %0, i64 noundef %1, ptr noundef %2) #3 {
  %4 = alloca ptr, align 8
  %5 = alloca i64, align 8
  %6 = alloca ptr, align 8
  %7 = alloca ptr, align 8
  store ptr %0, ptr %4, align 8, !tbaa !12
  store i64 %1, ptr %5, align 8, !tbaa !9
  store ptr %2, ptr %6, align 8, !tbaa !12
  call void @llvm.lifetime.start.p0(i64 8, ptr %7) #9
  %8 = load ptr, ptr %4, align 8, !tbaa !12
  store ptr %8, ptr %7, align 8, !tbaa !11
  %9 = load ptr, ptr %6, align 8, !tbaa !12
  %10 = load ptr, ptr %7, align 8, !tbaa !11
  %11 = getelementptr inbounds nuw %struct.PyTupleObject, ptr %10, i32 0, i32 1
  %12 = load i64, ptr %5, align 8, !tbaa !9
  %13 = getelementptr [1 x ptr], ptr %11, i64 0, i64 %12
  store ptr %9, ptr %13, align 8, !tbaa !12
  call void @llvm.lifetime.end.p0(i64 8, ptr %7) #9
  ret void
}

; Function Attrs: alwaysinline nounwind uwtable
define internal void @Py_DECREF(ptr noundef %0) #6 {
  %2 = alloca ptr, align 8
  store ptr %0, ptr %2, align 8, !tbaa !12
  %3 = load ptr, ptr %2, align 8, !tbaa !12
  %4 = call i32 @_Py_IsImmortal(ptr noundef %3)
  %5 = icmp ne i32 %4, 0
  br i1 %5, label %6, label %7

6:                                                ; preds = %1
  br label %16

7:                                                ; preds = %1
  %8 = load ptr, ptr %2, align 8, !tbaa !12
  %9 = getelementptr inbounds nuw %struct._object, ptr %8, i32 0, i32 0
  %10 = getelementptr inbounds nuw %struct.anon.42, ptr %9, i32 0, i32 0
  %11 = load i32, ptr %10, align 8, !tbaa !64
  %12 = add i32 %11, -1
  store i32 %12, ptr %10, align 8, !tbaa !64
  %13 = icmp eq i32 %12, 0
  br i1 %13, label %14, label %16

14:                                               ; preds = %7
  %15 = load ptr, ptr %2, align 8, !tbaa !12
  call void @_Py_Dealloc(ptr noundef %15)
  br label %16

16:                                               ; preds = %6, %14, %7
  ret void
}

; Function Attrs: nounwind uwtable
define internal i32 @initialize_structseq_dict(ptr noundef %0, ptr noundef %1, i64 noundef %2, i64 noundef %3) #0 {
  %5 = alloca i32, align 4
  %6 = alloca ptr, align 8
  %7 = alloca ptr, align 8
  %8 = alloca i64, align 8
  %9 = alloca i64, align 8
  %10 = alloca ptr, align 8
  %11 = alloca i32, align 4
  %12 = alloca i64, align 8
  %13 = alloca i64, align 8
  %14 = alloca ptr, align 8
  %15 = alloca ptr, align 8
  store ptr %0, ptr %6, align 8, !tbaa !29
  store ptr %1, ptr %7, align 8, !tbaa !12
  store i64 %2, ptr %8, align 8, !tbaa !9
  store i64 %3, ptr %9, align 8, !tbaa !9
  call void @llvm.lifetime.start.p0(i64 8, ptr %10) #9
  br label %16

16:                                               ; preds = %4
  %17 = load ptr, ptr %6, align 8, !tbaa !29
  %18 = getelementptr inbounds nuw %struct.PyStructSequence_Desc, ptr %17, i32 0, i32 3
  %19 = load i32, ptr %18, align 8, !tbaa !51
  %20 = sext i32 %19 to i64
  %21 = call ptr @PyLong_FromSsize_t(i64 noundef %20)
  store ptr %21, ptr %10, align 8, !tbaa !12
  %22 = load ptr, ptr %10, align 8, !tbaa !12
  %23 = icmp eq ptr %22, null
  br i1 %23, label %24, label %25

24:                                               ; preds = %16
  store i32 -1, ptr %5, align 4
  store i32 1, ptr %11, align 4
  br label %136

25:                                               ; preds = %16
  %26 = load ptr, ptr %7, align 8, !tbaa !12
  %27 = load ptr, ptr %10, align 8, !tbaa !12
  %28 = call i32 @PyDict_SetItemString(ptr noundef %26, ptr noundef @visible_length_key, ptr noundef %27)
  %29 = icmp slt i32 %28, 0
  br i1 %29, label %30, label %32

30:                                               ; preds = %25
  %31 = load ptr, ptr %10, align 8, !tbaa !12
  call void @Py_DECREF(ptr noundef %31)
  store i32 -1, ptr %5, align 4
  store i32 1, ptr %11, align 4
  br label %136

32:                                               ; preds = %25
  %33 = load ptr, ptr %10, align 8, !tbaa !12
  call void @Py_DECREF(ptr noundef %33)
  br label %34

34:                                               ; preds = %32
  br label %35

35:                                               ; preds = %34
  br label %36

36:                                               ; preds = %35
  %37 = load i64, ptr %8, align 8, !tbaa !9
  %38 = call ptr @PyLong_FromSsize_t(i64 noundef %37)
  store ptr %38, ptr %10, align 8, !tbaa !12
  %39 = load ptr, ptr %10, align 8, !tbaa !12
  %40 = icmp eq ptr %39, null
  br i1 %40, label %41, label %42

41:                                               ; preds = %36
  store i32 -1, ptr %5, align 4
  store i32 1, ptr %11, align 4
  br label %136

42:                                               ; preds = %36
  %43 = load ptr, ptr %7, align 8, !tbaa !12
  %44 = load ptr, ptr %10, align 8, !tbaa !12
  %45 = call i32 @PyDict_SetItemString(ptr noundef %43, ptr noundef @real_length_key, ptr noundef %44)
  %46 = icmp slt i32 %45, 0
  br i1 %46, label %47, label %49

47:                                               ; preds = %42
  %48 = load ptr, ptr %10, align 8, !tbaa !12
  call void @Py_DECREF(ptr noundef %48)
  store i32 -1, ptr %5, align 4
  store i32 1, ptr %11, align 4
  br label %136

49:                                               ; preds = %42
  %50 = load ptr, ptr %10, align 8, !tbaa !12
  call void @Py_DECREF(ptr noundef %50)
  br label %51

51:                                               ; preds = %49
  br label %52

52:                                               ; preds = %51
  br label %53

53:                                               ; preds = %52
  %54 = load i64, ptr %9, align 8, !tbaa !9
  %55 = call ptr @PyLong_FromSsize_t(i64 noundef %54)
  store ptr %55, ptr %10, align 8, !tbaa !12
  %56 = load ptr, ptr %10, align 8, !tbaa !12
  %57 = icmp eq ptr %56, null
  br i1 %57, label %58, label %59

58:                                               ; preds = %53
  store i32 -1, ptr %5, align 4
  store i32 1, ptr %11, align 4
  br label %136

59:                                               ; preds = %53
  %60 = load ptr, ptr %7, align 8, !tbaa !12
  %61 = load ptr, ptr %10, align 8, !tbaa !12
  %62 = call i32 @PyDict_SetItemString(ptr noundef %60, ptr noundef @unnamed_fields_key, ptr noundef %61)
  %63 = icmp slt i32 %62, 0
  br i1 %63, label %64, label %66

64:                                               ; preds = %59
  %65 = load ptr, ptr %10, align 8, !tbaa !12
  call void @Py_DECREF(ptr noundef %65)
  store i32 -1, ptr %5, align 4
  store i32 1, ptr %11, align 4
  br label %136

66:                                               ; preds = %59
  %67 = load ptr, ptr %10, align 8, !tbaa !12
  call void @Py_DECREF(ptr noundef %67)
  br label %68

68:                                               ; preds = %66
  br label %69

69:                                               ; preds = %68
  call void @llvm.lifetime.start.p0(i64 8, ptr %12) #9
  call void @llvm.lifetime.start.p0(i64 8, ptr %13) #9
  call void @llvm.lifetime.start.p0(i64 8, ptr %14) #9
  %70 = load ptr, ptr %6, align 8, !tbaa !29
  %71 = getelementptr inbounds nuw %struct.PyStructSequence_Desc, ptr %70, i32 0, i32 3
  %72 = load i32, ptr %71, align 8, !tbaa !51
  %73 = sext i32 %72 to i64
  %74 = call ptr @PyTuple_New(i64 noundef %73)
  store ptr %74, ptr %14, align 8, !tbaa !12
  %75 = load ptr, ptr %14, align 8, !tbaa !12
  %76 = icmp eq ptr %75, null
  br i1 %76, label %77, label %78

77:                                               ; preds = %69
  store i32 -1, ptr %5, align 4
  store i32 1, ptr %11, align 4
  br label %135

78:                                               ; preds = %69
  store i64 0, ptr %13, align 8, !tbaa !9
  store i64 0, ptr %12, align 8, !tbaa !9
  br label %79

79:                                               ; preds = %117, %78
  %80 = load i64, ptr %12, align 8, !tbaa !9
  %81 = load ptr, ptr %6, align 8, !tbaa !29
  %82 = getelementptr inbounds nuw %struct.PyStructSequence_Desc, ptr %81, i32 0, i32 3
  %83 = load i32, ptr %82, align 8, !tbaa !51
  %84 = sext i32 %83 to i64
  %85 = icmp slt i64 %80, %84
  br i1 %85, label %86, label %120

86:                                               ; preds = %79
  %87 = load ptr, ptr %6, align 8, !tbaa !29
  %88 = getelementptr inbounds nuw %struct.PyStructSequence_Desc, ptr %87, i32 0, i32 2
  %89 = load ptr, ptr %88, align 8, !tbaa !39
  %90 = load i64, ptr %12, align 8, !tbaa !9
  %91 = getelementptr %struct.PyStructSequence_Field, ptr %89, i64 %90
  %92 = getelementptr inbounds nuw %struct.PyStructSequence_Field, ptr %91, i32 0, i32 0
  %93 = load ptr, ptr %92, align 8, !tbaa !40
  %94 = icmp eq ptr %93, @.str
  br i1 %94, label %95, label %96

95:                                               ; preds = %86
  br label %117

96:                                               ; preds = %86
  call void @llvm.lifetime.start.p0(i64 8, ptr %15) #9
  %97 = load ptr, ptr %6, align 8, !tbaa !29
  %98 = getelementptr inbounds nuw %struct.PyStructSequence_Desc, ptr %97, i32 0, i32 2
  %99 = load ptr, ptr %98, align 8, !tbaa !39
  %100 = load i64, ptr %12, align 8, !tbaa !9
  %101 = getelementptr %struct.PyStructSequence_Field, ptr %99, i64 %100
  %102 = getelementptr inbounds nuw %struct.PyStructSequence_Field, ptr %101, i32 0, i32 0
  %103 = load ptr, ptr %102, align 8, !tbaa !40
  %104 = call ptr @PyUnicode_FromString(ptr noundef %103)
  store ptr %104, ptr %15, align 8, !tbaa !12
  %105 = load ptr, ptr %15, align 8, !tbaa !12
  %106 = icmp eq ptr %105, null
  br i1 %106, label %107, label %108

107:                                              ; preds = %96
  store i32 11, ptr %11, align 4
  br label %114

108:                                              ; preds = %96
  %109 = load ptr, ptr %14, align 8, !tbaa !12
  %110 = load i64, ptr %13, align 8, !tbaa !9
  %111 = load ptr, ptr %15, align 8, !tbaa !12
  call void @PyTuple_SET_ITEM(ptr noundef %109, i64 noundef %110, ptr noundef %111)
  %112 = load i64, ptr %13, align 8, !tbaa !9
  %113 = add i64 %112, 1
  store i64 %113, ptr %13, align 8, !tbaa !9
  store i32 0, ptr %11, align 4
  br label %114

114:                                              ; preds = %107, %108
  call void @llvm.lifetime.end.p0(i64 8, ptr %15) #9
  %115 = load i32, ptr %11, align 4
  switch i32 %115, label %135 [
    i32 0, label %116
    i32 11, label %133
  ]

116:                                              ; preds = %114
  br label %117

117:                                              ; preds = %116, %95
  %118 = load i64, ptr %12, align 8, !tbaa !9
  %119 = add i64 %118, 1
  store i64 %119, ptr %12, align 8, !tbaa !9
  br label %79, !llvm.loop !63

120:                                              ; preds = %79
  %121 = load i64, ptr %13, align 8, !tbaa !9
  %122 = call i32 @_PyTuple_Resize(ptr noundef %14, i64 noundef %121)
  %123 = icmp eq i32 %122, -1
  br i1 %123, label %124, label %125

124:                                              ; preds = %120
  br label %133

125:                                              ; preds = %120
  %126 = load ptr, ptr %7, align 8, !tbaa !12
  %127 = load ptr, ptr %14, align 8, !tbaa !12
  %128 = call i32 @PyDict_SetItemString(ptr noundef %126, ptr noundef @match_args_key, ptr noundef %127)
  %129 = icmp slt i32 %128, 0
  br i1 %129, label %130, label %131

130:                                              ; preds = %125
  br label %133

131:                                              ; preds = %125
  %132 = load ptr, ptr %14, align 8, !tbaa !12
  call void @Py_DECREF(ptr noundef %132)
  store i32 0, ptr %5, align 4
  store i32 1, ptr %11, align 4
  br label %135

133:                                              ; preds = %114, %130, %124
  %134 = load ptr, ptr %14, align 8, !tbaa !12
  call void @Py_DECREF(ptr noundef %134)
  store i32 -1, ptr %5, align 4
  store i32 1, ptr %11, align 4
  br label %135

135:                                              ; preds = %133, %131, %114, %77
  call void @llvm.lifetime.end.p0(i64 8, ptr %14) #9
  call void @llvm.lifetime.end.p0(i64 8, ptr %13) #9
  call void @llvm.lifetime.end.p0(i64 8, ptr %12) #9
  br label %136

136:                                              ; preds = %135, %64, %58, %47, %41, %30, %24
  call void @llvm.lifetime.end.p0(i64 8, ptr %10) #9
  %137 = load i32, ptr %5, align 4
  ret i32 %137
}