; Function Attrs: nounwind uwtable
define internal fastcc range(i32 -1, 1) i32 @initialize_structseq_dict(ptr noundef readonly captures(none) %0, ptr noundef %1, i64 noundef %2, i64 noundef %3) unnamed_addr #0 {
  %5 = alloca ptr, align 8
  %6 = getelementptr inbounds nuw i8, ptr %0, i64 24
  %7 = load i32, ptr %6, align 8, !tbaa !40
  %8 = sext i32 %7 to i64
  %9 = tail call ptr @PyLong_FromSsize_t(i64 noundef %8) #9
  %10 = icmp eq ptr %9, null
  br i1 %10, label %Py_DECREF.exit, label %11

11:                                               ; preds = %4
  %12 = tail call i32 @PyDict_SetItemString(ptr noundef %1, ptr noundef nonnull @visible_length_key, ptr noundef nonnull %9) #9
  %13 = icmp slt i32 %12, 0
  %14 = load i32, ptr %9, align 8, !tbaa !52
  %.not.i = icmp sgt i32 %14, -1
  br i1 %13, label %15, label %20

15:                                               ; preds = %11
  br i1 %.not.i, label %16, label %Py_DECREF.exit

16:                                               ; preds = %15
  %17 = add nsw i32 %14, -1
  store i32 %17, ptr %9, align 8, !tbaa !52
  %18 = icmp eq i32 %17, 0
  br i1 %18, label %19, label %Py_DECREF.exit

19:                                               ; preds = %16
  tail call void @_Py_Dealloc(ptr noundef nonnull %9) #9
  br label %Py_DECREF.exit

20:                                               ; preds = %11
  br i1 %.not.i, label %21, label %Py_DECREF.exit43

21:                                               ; preds = %20
  %22 = add nsw i32 %14, -1
  store i32 %22, ptr %9, align 8, !tbaa !52
  %23 = icmp eq i32 %22, 0
  br i1 %23, label %24, label %Py_DECREF.exit43

24:                                               ; preds = %21
  tail call void @_Py_Dealloc(ptr noundef nonnull %9) #9
  br label %Py_DECREF.exit43

Py_DECREF.exit43:                                 ; preds = %20, %21, %24
  %25 = tail call ptr @PyLong_FromSsize_t(i64 noundef %2) #9
  %26 = icmp eq ptr %25, null
  br i1 %26, label %Py_DECREF.exit, label %27

27:                                               ; preds = %Py_DECREF.exit43
  %28 = tail call i32 @PyDict_SetItemString(ptr noundef %1, ptr noundef nonnull @real_length_key, ptr noundef nonnull %25) #9
  %29 = icmp slt i32 %28, 0
  %30 = load i32, ptr %25, align 8, !tbaa !52
  %.not.i44 = icmp sgt i32 %30, -1
  br i1 %29, label %31, label %36

31:                                               ; preds = %27
  br i1 %.not.i44, label %32, label %Py_DECREF.exit

32:                                               ; preds = %31
  %33 = add nsw i32 %30, -1
  store i32 %33, ptr %25, align 8, !tbaa !52
  %34 = icmp eq i32 %33, 0
  br i1 %34, label %35, label %Py_DECREF.exit

35:                                               ; preds = %32
  tail call void @_Py_Dealloc(ptr noundef nonnull %25) #9
  br label %Py_DECREF.exit

36:                                               ; preds = %27
  br i1 %.not.i44, label %37, label %Py_DECREF.exit47

37:                                               ; preds = %36
  %38 = add nsw i32 %30, -1
  store i32 %38, ptr %25, align 8, !tbaa !52
  %39 = icmp eq i32 %38, 0
  br i1 %39, label %40, label %Py_DECREF.exit47

40:                                               ; preds = %37
  tail call void @_Py_Dealloc(ptr noundef nonnull %25) #9
  br label %Py_DECREF.exit47

Py_DECREF.exit47:                                 ; preds = %36, %37, %40
  %41 = tail call ptr @PyLong_FromSsize_t(i64 noundef %3) #9
  %42 = icmp eq ptr %41, null
  br i1 %42, label %Py_DECREF.exit, label %43

43:                                               ; preds = %Py_DECREF.exit47
  %44 = tail call i32 @PyDict_SetItemString(ptr noundef %1, ptr noundef nonnull @unnamed_fields_key, ptr noundef nonnull %41) #9
  %45 = icmp slt i32 %44, 0
  %46 = load i32, ptr %41, align 8, !tbaa !52
  %.not.i48 = icmp sgt i32 %46, -1
  br i1 %45, label %47, label %52

47:                                               ; preds = %43
  br i1 %.not.i48, label %48, label %Py_DECREF.exit

48:                                               ; preds = %47
  %49 = add nsw i32 %46, -1
  store i32 %49, ptr %41, align 8, !tbaa !52
  %50 = icmp eq i32 %49, 0
  br i1 %50, label %51, label %Py_DECREF.exit

51:                                               ; preds = %48
  tail call void @_Py_Dealloc(ptr noundef nonnull %41) #9
  br label %Py_DECREF.exit

52:                                               ; preds = %43
  br i1 %.not.i48, label %53, label %Py_DECREF.exit51

53:                                               ; preds = %52
  %54 = add nsw i32 %46, -1
  store i32 %54, ptr %41, align 8, !tbaa !52
  %55 = icmp eq i32 %54, 0
  br i1 %55, label %56, label %Py_DECREF.exit51

56:                                               ; preds = %53
  tail call void @_Py_Dealloc(ptr noundef nonnull %41) #9
  br label %Py_DECREF.exit51

Py_DECREF.exit51:                                 ; preds = %52, %53, %56
  call void @llvm.lifetime.start.p0(i64 8, ptr nonnull %5) #9
  %57 = load i32, ptr %6, align 8, !tbaa !40
  %58 = sext i32 %57 to i64
  %59 = tail call ptr @PyTuple_New(i64 noundef %58) #9
  store ptr %59, ptr %5, align 8, !tbaa !4
  %60 = icmp eq ptr %59, null
  br i1 %60, label %Py_DECREF.exit53, label %.preheader

.preheader:                                       ; preds = %Py_DECREF.exit51
  %61 = load i32, ptr %6, align 8, !tbaa !40
  %62 = icmp sgt i32 %61, 0
  br i1 %62, label %.lr.ph, label %._crit_edge

.lr.ph:                                           ; preds = %.preheader
  %63 = getelementptr inbounds nuw i8, ptr %0, i64 16
  %64 = getelementptr inbounds nuw i8, ptr %59, i64 24
  br label %65

65:                                               ; preds = %.lr.ph, %76
  %66 = phi i32 [ %61, %.lr.ph ], [ %77, %76 ]
  %.03367 = phi i64 [ 0, %.lr.ph ], [ %.134, %76 ]
  %.03566 = phi i64 [ 0, %.lr.ph ], [ %78, %76 ]
  %67 = load ptr, ptr %63, align 8, !tbaa !23
  %68 = getelementptr %struct.PyStructSequence_Field, ptr %67, i64 %.03566
  %69 = load ptr, ptr %68, align 8, !tbaa !26
  %70 = icmp eq ptr %69, @.str
  br i1 %70, label %76, label %71

71:                                               ; preds = %65
  %72 = tail call ptr @PyUnicode_FromString(ptr noundef %69) #9
  %73 = icmp eq ptr %72, null
  br i1 %73, label %.loopexit, label %.thread

.thread:                                          ; preds = %71
  %74 = getelementptr [1 x ptr], ptr %64, i64 0, i64 %.03367
  store ptr %72, ptr %74, align 8, !tbaa !4
  %75 = add i64 %.03367, 1
  %.pre = load i32, ptr %6, align 8, !tbaa !40
  br label %76

76:                                               ; preds = %.thread, %65
  %77 = phi i32 [ %66, %65 ], [ %.pre, %.thread ]
  %.134 = phi i64 [ %.03367, %65 ], [ %75, %.thread ]
  %78 = add nuw nsw i64 %.03566, 1
  %79 = sext i32 %77 to i64
  %80 = icmp slt i64 %78, %79
  br i1 %80, label %65, label %._crit_edge, !llvm.loop !53

._crit_edge:                                      ; preds = %76, %.preheader
  %.033.lcssa = phi i64 [ 0, %.preheader ], [ %.134, %76 ]
  %81 = call i32 @_PyTuple_Resize(ptr noundef nonnull %5, i64 noundef %.033.lcssa) #9
  %82 = icmp eq i32 %81, -1
  %.pre69 = load ptr, ptr %5, align 8, !tbaa !4
  br i1 %82, label %.loopexit, label %83

83:                                               ; preds = %._crit_edge
  %84 = call i32 @PyDict_SetItemString(ptr noundef %1, ptr noundef nonnull @match_args_key, ptr noundef %.pre69) #9
  %85 = icmp slt i32 %84, 0
  %.pre68 = load ptr, ptr %5, align 8, !tbaa !4
  br i1 %85, label %.loopexit, label %86

86:                                               ; preds = %83
  %87 = load i32, ptr %.pre68, align 8, !tbaa !52
  %.not.i52 = icmp sgt i32 %87, -1
  br i1 %.not.i52, label %88, label %Py_DECREF.exit53

88:                                               ; preds = %86
  %89 = add nsw i32 %87, -1
  store i32 %89, ptr %.pre68, align 8, !tbaa !52
  %90 = icmp eq i32 %89, 0
  br i1 %90, label %Py_DECREF.exit53.sink.split, label %Py_DECREF.exit53

.loopexit:                                        ; preds = %71, %83, %._crit_edge
  %91 = phi ptr [ %.pre68, %83 ], [ %.pre69, %._crit_edge ], [ %59, %71 ]
  %92 = load i32, ptr %91, align 8, !tbaa !52
  %.not.i54 = icmp sgt i32 %92, -1
  br i1 %.not.i54, label %93, label %Py_DECREF.exit53

93:                                               ; preds = %.loopexit
  %94 = add nsw i32 %92, -1
  store i32 %94, ptr %91, align 8, !tbaa !52
  %95 = icmp eq i32 %94, 0
  br i1 %95, label %Py_DECREF.exit53.sink.split, label %Py_DECREF.exit53

Py_DECREF.exit53.sink.split:                      ; preds = %93, %88
  %.sink = phi ptr [ %.pre68, %88 ], [ %91, %93 ]
  %.1.ph = phi i32 [ 0, %88 ], [ -1, %93 ]
  call void @_Py_Dealloc(ptr noundef nonnull %.sink) #9
  br label %Py_DECREF.exit53

Py_DECREF.exit53:                                 ; preds = %Py_DECREF.exit53.sink.split, %93, %.loopexit, %88, %86, %Py_DECREF.exit51
  %.1 = phi i32 [ -1, %Py_DECREF.exit51 ], [ 0, %86 ], [ 0, %88 ], [ -1, %.loopexit ], [ -1, %93 ], [ %.1.ph, %Py_DECREF.exit53.sink.split ]
  call void @llvm.lifetime.end.p0(i64 8, ptr nonnull %5) #9
  br label %Py_DECREF.exit

Py_DECREF.exit:                                   ; preds = %51, %48, %47, %35, %32, %31, %19, %16, %15, %Py_DECREF.exit47, %Py_DECREF.exit43, %4, %Py_DECREF.exit53
  %.0 = phi i32 [ %.1, %Py_DECREF.exit53 ], [ -1, %4 ], [ -1, %Py_DECREF.exit43 ], [ -1, %Py_DECREF.exit47 ], [ -1, %15 ], [ -1, %16 ], [ -1, %19 ], [ -1, %31 ], [ -1, %32 ], [ -1, %35 ], [ -1, %47 ], [ -1, %48 ], [ -1, %51 ]
  ret i32 %.0
}